

Microchip MPLAB XC8 Assembler V2.10 build 88905656 
                                                                                               Fri May  8 07:05:53 2020

Microchip MPLAB XC8 C Compiler v2.10 (Free license) build 20190730164152 Og1 
     1                           	processor	16F628A
     2                           	opt	pw 120
     3                           	opt	flic
     4                           	psect	idataCOMMON,global,class=CODE,delta=2
     5                           	psect	idataBANK0,global,class=CODE,delta=2
     6                           	psect	cinit,global,class=CODE,merge=1,delta=2
     7                           	psect	bssCOMMON,global,class=COMMON,space=1,delta=1
     8                           	psect	dataCOMMON,global,class=COMMON,space=1,delta=1
     9                           	psect	dataBANK0,global,class=BANK0,space=1,delta=1
    10                           	psect	cstackCOMMON,global,class=COMMON,space=1,delta=1
    11                           	psect	cstackBANK0,global,class=BANK0,space=1,delta=1
    12                           	psect	maintext,global,class=CODE,split=1,delta=2
    13                           	psect	text1,local,class=CODE,merge=1,delta=2
    14                           	psect	text2,local,class=CODE,merge=1,delta=2
    15                           	psect	text3,local,class=CODE,merge=1,delta=2
    16                           	psect	intentry,global,class=CODE,delta=2
    17                           	dabs	1,0x7E,2
    18  0000                     
    19                           ; Version 2.10
    20                           ; Generated 31/07/2019 GMT
    21                           ; 
    22                           ; Copyright © 2019, Microchip Technology Inc. and its subsidiaries ("Microchip")
    23                           ; All rights reserved.
    24                           ; 
    25                           ; This software is developed by Microchip Technology Inc. and its subsidiaries ("Microch
      +                          ip").
    26                           ; 
    27                           ; Redistribution and use in source and binary forms, with or without modification, are
    28                           ; permitted provided that the following conditions are met:
    29                           ; 
    30                           ;     1. Redistributions of source code must retain the above copyright notice, this lis
      +                          t of
    31                           ;        conditions and the following disclaimer.
    32                           ; 
    33                           ;     2. Redistributions in binary form must reproduce the above copyright notice, this 
      +                          list
    34                           ;        of conditions and the following disclaimer in the documentation and/or other
    35                           ;        materials provided with the distribution.
    36                           ; 
    37                           ;     3. Microchip's name may not be used to endorse or promote products derived from th
      +                          is
    38                           ;        software without specific prior written permission.
    39                           ; 
    40                           ; THIS SOFTWARE IS PROVIDED BY MICROCHIP "AS IS" AND ANY EXPRESS OR IMPLIED WARRANTIES,
    41                           ; INCLUDING, BUT NOT LIMITED TO, THE IMPLIED WARRANTIES OF MERCHANTABILITY AND FITNESS F
      +                          OR
    42                           ; PURPOSE ARE DISCLAIMED.  IN NO EVENT SHALL MICROCHIP BE LIABLE FOR ANY DIRECT, INDIREC
      +                          T,
    43                           ; INCIDENTAL, SPECIAL, EXEMPLARY, OR CONSEQUENTIAL DAMAGES (INCLUDING BUT NOT LIMITED TO
    44                           ; PROCUREMENT OF SUBSTITUTE GOODS OR SERVICES; LOSS OF USE, DATA OR PROFITS; OR BUSINESS
    45                           ; INTERRUPTION) HOWSOEVER CAUSED AND ON ANY THEORY OF LIABILITY, WHETHER IN CONTRACT, ST
      +                          RICT
    46                           ; LIABILITY, OR TORT (INCLUDING NEGLIGENCE OR OTHERWISE) ARISING IN ANY WAY OUT OF THE U
      +                          SE OF
    47                           ; THIS SOFTWARE, EVEN IF ADVISED OF THE POSSIBILITY OF SUCH DAMAGE.
    48                           ; 
    49                           ; 
    50                           ; Code-generator required, PIC16F628A Definitions
    51                           ; 
    52                           ; SFR Addresses
    53  0000                     	;# 
    54  0001                     	;# 
    55  0002                     	;# 
    56  0003                     	;# 
    57  0004                     	;# 
    58  0005                     	;# 
    59  0006                     	;# 
    60  000A                     	;# 
    61  000B                     	;# 
    62  000C                     	;# 
    63  000E                     	;# 
    64  000E                     	;# 
    65  000F                     	;# 
    66  0010                     	;# 
    67  0011                     	;# 
    68  0012                     	;# 
    69  0015                     	;# 
    70  0015                     	;# 
    71  0016                     	;# 
    72  0017                     	;# 
    73  0018                     	;# 
    74  0019                     	;# 
    75  001A                     	;# 
    76  001F                     	;# 
    77  0081                     	;# 
    78  0085                     	;# 
    79  0086                     	;# 
    80  008C                     	;# 
    81  008E                     	;# 
    82  0092                     	;# 
    83  0098                     	;# 
    84  0099                     	;# 
    85  009A                     	;# 
    86  009B                     	;# 
    87  009C                     	;# 
    88  009D                     	;# 
    89  009F                     	;# 
    90  0000                     	;# 
    91  0001                     	;# 
    92  0002                     	;# 
    93  0003                     	;# 
    94  0004                     	;# 
    95  0005                     	;# 
    96  0006                     	;# 
    97  000A                     	;# 
    98  000B                     	;# 
    99  000C                     	;# 
   100  000E                     	;# 
   101  000E                     	;# 
   102  000F                     	;# 
   103  0010                     	;# 
   104  0011                     	;# 
   105  0012                     	;# 
   106  0015                     	;# 
   107  0015                     	;# 
   108  0016                     	;# 
   109  0017                     	;# 
   110  0018                     	;# 
   111  0019                     	;# 
   112  001A                     	;# 
   113  001F                     	;# 
   114  0081                     	;# 
   115  0085                     	;# 
   116  0086                     	;# 
   117  008C                     	;# 
   118  008E                     	;# 
   119  0092                     	;# 
   120  0098                     	;# 
   121  0099                     	;# 
   122  009A                     	;# 
   123  009B                     	;# 
   124  009C                     	;# 
   125  009D                     	;# 
   126  009F                     	;# 
   127  0000                     	;# 
   128  0001                     	;# 
   129  0002                     	;# 
   130  0003                     	;# 
   131  0004                     	;# 
   132  0005                     	;# 
   133  0006                     	;# 
   134  000A                     	;# 
   135  000B                     	;# 
   136  000C                     	;# 
   137  000E                     	;# 
   138  000E                     	;# 
   139  000F                     	;# 
   140  0010                     	;# 
   141  0011                     	;# 
   142  0012                     	;# 
   143  0015                     	;# 
   144  0015                     	;# 
   145  0016                     	;# 
   146  0017                     	;# 
   147  0018                     	;# 
   148  0019                     	;# 
   149  001A                     	;# 
   150  001F                     	;# 
   151  0081                     	;# 
   152  0085                     	;# 
   153  0086                     	;# 
   154  008C                     	;# 
   155  008E                     	;# 
   156  0092                     	;# 
   157  0098                     	;# 
   158  0099                     	;# 
   159  009A                     	;# 
   160  009B                     	;# 
   161  009C                     	;# 
   162  009D                     	;# 
   163  009F                     	;# 
   164  0000                     	;# 
   165  0001                     	;# 
   166  0002                     	;# 
   167  0003                     	;# 
   168  0004                     	;# 
   169  0005                     	;# 
   170  0006                     	;# 
   171  000A                     	;# 
   172  000B                     	;# 
   173  000C                     	;# 
   174  000E                     	;# 
   175  000E                     	;# 
   176  000F                     	;# 
   177  0010                     	;# 
   178  0011                     	;# 
   179  0012                     	;# 
   180  0015                     	;# 
   181  0015                     	;# 
   182  0016                     	;# 
   183  0017                     	;# 
   184  0018                     	;# 
   185  0019                     	;# 
   186  001A                     	;# 
   187  001F                     	;# 
   188  0081                     	;# 
   189  0085                     	;# 
   190  0086                     	;# 
   191  008C                     	;# 
   192  008E                     	;# 
   193  0092                     	;# 
   194  0098                     	;# 
   195  0099                     	;# 
   196  009A                     	;# 
   197  009B                     	;# 
   198  009C                     	;# 
   199  009D                     	;# 
   200  009F                     	;# 
   201  0000                     	;# 
   202  0001                     	;# 
   203  0002                     	;# 
   204  0003                     	;# 
   205  0004                     	;# 
   206  0005                     	;# 
   207  0006                     	;# 
   208  000A                     	;# 
   209  000B                     	;# 
   210  000C                     	;# 
   211  000E                     	;# 
   212  000E                     	;# 
   213  000F                     	;# 
   214  0010                     	;# 
   215  0011                     	;# 
   216  0012                     	;# 
   217  0015                     	;# 
   218  0015                     	;# 
   219  0016                     	;# 
   220  0017                     	;# 
   221  0018                     	;# 
   222  0019                     	;# 
   223  001A                     	;# 
   224  001F                     	;# 
   225  0081                     	;# 
   226  0085                     	;# 
   227  0086                     	;# 
   228  008C                     	;# 
   229  008E                     	;# 
   230  0092                     	;# 
   231  0098                     	;# 
   232  0099                     	;# 
   233  009A                     	;# 
   234  009B                     	;# 
   235  009C                     	;# 
   236  009D                     	;# 
   237  009F                     	;# 
   238  0000                     	;# 
   239  0001                     	;# 
   240  0002                     	;# 
   241  0003                     	;# 
   242  0004                     	;# 
   243  0005                     	;# 
   244  0006                     	;# 
   245  000A                     	;# 
   246  000B                     	;# 
   247  000C                     	;# 
   248  000E                     	;# 
   249  000E                     	;# 
   250  000F                     	;# 
   251  0010                     	;# 
   252  0011                     	;# 
   253  0012                     	;# 
   254  0015                     	;# 
   255  0015                     	;# 
   256  0016                     	;# 
   257  0017                     	;# 
   258  0018                     	;# 
   259  0019                     	;# 
   260  001A                     	;# 
   261  001F                     	;# 
   262  0081                     	;# 
   263  0085                     	;# 
   264  0086                     	;# 
   265  008C                     	;# 
   266  008E                     	;# 
   267  0092                     	;# 
   268  0098                     	;# 
   269  0099                     	;# 
   270  009A                     	;# 
   271  009B                     	;# 
   272  009C                     	;# 
   273  009D                     	;# 
   274  009F                     	;# 
   275                           
   276                           	psect	idataCOMMON
   277  0202                     __pidataCOMMON:	
   278                           
   279                           ;initializer for _must_be_closed
   280  0202  3401               	retlw	1
   281                           
   282                           ;initializer for _overtorgue_flag
   283  0203  3401               	retlw	1
   284                           
   285                           	psect	idataBANK0
   286  0204                     __pidataBANK0:	
   287                           
   288                           ;initializer for _counter
   289  0204  3414               	retlw	20
   290  0205  3400               	retlw	0
   291  0005                     _PORTA	set	5
   292  001F                     _CMCON	set	31
   293  000B                     _INTCON	set	11
   294  0006                     _PORTB	set	6
   295  0037                     _RB7	set	55
   296  002A                     _RA2	set	42
   297  002B                     _RA3	set	43
   298  002F                     _RA7	set	47
   299  0036                     _RB6	set	54
   300  0058                     _RBIF	set	88
   301  002E                     _RA6	set	46
   302  0029                     _RA1	set	41
   303  0028                     _RA0	set	40
   304  0034                     _RB4	set	52
   305  0035                     _RB5	set	53
   306  0059                     _INTF	set	89
   307  0086                     _TRISB	set	134
   308  0085                     _TRISA	set	133
   309  040E                     _INTEDG	set	1038
   310  040F                     _nRBPU	set	1039
   311                           
   312                           ; #config settings
   313  0000                     
   314                           	psect	cinit
   315  000B                     start_initialization:	
   316  000B                     __initialization:	
   317                           
   318                           ; Initialize objects allocated to BANK0
   319  000B  2204               	fcall	__pidataBANK0	;fetch initializer
   320  000C  00A3               	movwf	__pdataBANK0& (0+127)
   321  000D  2205               	fcall	__pidataBANK0+1	;fetch initializer
   322  000E  00A4               	movwf	(__pdataBANK0+1)& (0+127)
   323                           
   324                           ; Initialize objects allocated to COMMON
   325  000F  2202               	fcall	__pidataCOMMON	;fetch initializer
   326  0010  00F6               	movwf	__pdataCOMMON& (0+127)
   327  0011  2203               	fcall	__pidataCOMMON+1	;fetch initializer
   328  0012  00F7               	movwf	(__pdataCOMMON+1)& (0+127)
   329                           
   330                           ; Clear objects allocated to COMMON
   331  0013  01F8               	clrf	__pbssCOMMON& (0+127)
   332  0014                     end_of_initialization:	
   333                           ;End of C runtime variable initialization code
   334                           
   335  0014                     __end_of__initialization:	
   336  0014  0183               	clrf	3
   337  0015  2816               	ljmp	_main	;jump to C main() function
   338                           
   339                           	psect	bssCOMMON
   340  0078                     __pbssCOMMON:	
   341  0078                     _movement_direction:	
   342  0078                     	ds	1
   343                           
   344                           	psect	dataCOMMON
   345  0076                     __pdataCOMMON:	
   346  0076                     _must_be_closed:	
   347  0076                     	ds	1
   348  0077                     _overtorgue_flag:	
   349  0077                     	ds	1
   350                           
   351                           	psect	dataBANK0
   352  0023                     __pdataBANK0:	
   353  0023                     _counter:	
   354  0023                     	ds	2
   355                           
   356                           	psect	cstackCOMMON
   357  0070                     __pcstackCOMMON:	
   358  0070                     ?_ConfigureOscillator:	
   359  0070                     ?_InitApp:	
   360                           ; 1 bytes @ 0x0
   361                           
   362  0070                     ?_my_isr_routine:	
   363                           ; 1 bytes @ 0x0
   364                           
   365  0070                     ??_my_isr_routine:	
   366                           ; 1 bytes @ 0x0
   367                           
   368  0070                     ?_main:	
   369                           ; 1 bytes @ 0x0
   370                           
   371                           
   372                           ; 1 bytes @ 0x0
   373  0070                     	ds	3
   374  0073                     ??_ConfigureOscillator:	
   375  0073                     ??_InitApp:	
   376                           ; 1 bytes @ 0x3
   377                           
   378                           
   379                           ; 1 bytes @ 0x3
   380  0073                     	ds	3
   381                           
   382                           	psect	cstackBANK0
   383  0020                     __pcstackBANK0:	
   384  0020                     ??_main:	
   385                           
   386                           ; 1 bytes @ 0x0
   387  0020                     	ds	3
   388                           
   389                           	psect	maintext
   390  0016                     __pmaintext:	
   391 ;;
   392 ;;Main: autosize = 0, tempsize = 3, incstack = 0, save=0
   393 ;;
   394 ;; *************** function _main *****************
   395 ;; Defined at:
   396 ;;		line 34 in file "main.c"
   397 ;; Parameters:    Size  Location     Type
   398 ;;		None
   399 ;; Auto vars:     Size  Location     Type
   400 ;;		None
   401 ;; Return value:  Size  Location     Type
   402 ;;                  1    wreg      void 
   403 ;; Registers used:
   404 ;;		wreg, status,2, status,0, btemp+1, pclath, cstack
   405 ;; Tracked objects:
   406 ;;		On entry : B00/0
   407 ;;		On exit  : 0/0
   408 ;;		Unchanged: 0/0
   409 ;; Data sizes:     COMMON   BANK0   BANK1   BANK2
   410 ;;      Params:         0       0       0       0
   411 ;;      Locals:         0       0       0       0
   412 ;;      Temps:          0       3       0       0
   413 ;;      Totals:         0       3       0       0
   414 ;;Total ram usage:        3 bytes
   415 ;; Hardware stack levels required when called:    2
   416 ;; This function calls:
   417 ;;		_ConfigureOscillator
   418 ;;		_InitApp
   419 ;; This function is called by:
   420 ;;		Startup code after reset
   421 ;; This function uses a non-reentrant model
   422 ;;
   423                           
   424                           
   425                           ;psect for function _main
   426  0016                     _main:	
   427  0016                     l1097:	
   428                           ;incstack = 0
   429                           ; Regs used in _main: [wreg+status,2+status,0+btemp+1+pclath+cstack]
   430                           
   431                           
   432                           ;main.c: 37:     ConfigureOscillator();
   433  0016  2206               	fcall	_ConfigureOscillator
   434  0017                     l1099:	
   435                           
   436                           ;main.c: 40:     InitApp();
   437  0017  2191               	fcall	_InitApp
   438  0018                     l1101:	
   439                           
   440                           ;main.c: 42:     if (RB5==0) {
   441  0018  1283               	bcf	3,5	;RP0=0, select bank0
   442  0019  1303               	bcf	3,6	;RP1=0, select bank0
   443  001A  1A86               	btfsc	6,5	;volatile
   444  001B  281D               	goto	u761
   445  001C  281E               	goto	u760
   446  001D                     u761:	
   447  001D  2820               	goto	l1105
   448  001E                     u760:	
   449  001E                     l1103:	
   450                           
   451                           ;main.c: 43:         movement_direction = 0;
   452  001E  01F8               	clrf	_movement_direction
   453                           
   454                           ;main.c: 44:         must_be_closed = 0;
   455  001F  01F6               	clrf	_must_be_closed
   456  0020                     l1105:	
   457                           
   458                           ;main.c: 48:     {;main.c: 49:         if (overtorgue_flag==0 ) {
   459  0020  0877               	movf	_overtorgue_flag,w
   460  0021  1D03               	btfss	3,2
   461  0022  2824               	goto	u771
   462  0023  2825               	goto	u770
   463  0024                     u771:	
   464  0024  282C               	goto	l98
   465  0025                     u770:	
   466  0025                     l1107:	
   467                           
   468                           ;main.c: 51:             RA7 = 0;
   469  0025  1283               	bcf	3,5	;RP0=0, select bank0
   470  0026  1303               	bcf	3,6	;RP1=0, select bank0
   471  0027  1385               	bcf	5,7	;volatile
   472                           
   473                           ;main.c: 52:             RA3= 0;
   474  0028  1185               	bcf	5,3	;volatile
   475  0029                     l1109:	
   476                           
   477                           ;main.c: 53:             RA2 = !RA2;
   478  0029  3004               	movlw	4
   479  002A  0685               	xorwf	5,f
   480                           
   481                           ;main.c: 55:         } else if (RB5==0 && RB4==0) {
   482  002B  28C6               	goto	l1155
   483  002C                     l98:	
   484  002C  1283               	bcf	3,5	;RP0=0, select bank0
   485  002D  1303               	bcf	3,6	;RP1=0, select bank0
   486  002E  1A86               	btfsc	6,5	;volatile
   487  002F  2831               	goto	u781
   488  0030  2832               	goto	u780
   489  0031                     u781:	
   490  0031  286D               	goto	l100
   491  0032                     u780:	
   492  0032                     l1111:	
   493  0032  1A06               	btfsc	6,4	;volatile
   494  0033  2835               	goto	u791
   495  0034  2836               	goto	u790
   496  0035                     u791:	
   497  0035  286D               	goto	l100
   498  0036                     u790:	
   499  0036                     l1113:	
   500                           
   501                           ;main.c: 57:             RA7 = 0;
   502  0036  1385               	bcf	5,7	;volatile
   503                           
   504                           ;main.c: 58:             RA3= 0;
   505  0037  1185               	bcf	5,3	;volatile
   506                           
   507                           ;main.c: 59:             RA2 = 1;
   508  0038  1505               	bsf	5,2	;volatile
   509  0039                     l1115:	
   510                           
   511                           ;main.c: 60:             _delay((unsigned long)((200)*(4000000/4000.0)));
   512  0039  3002               	movlw	2
   513  003A  1283               	bcf	3,5	;RP0=0, select bank0
   514  003B  1303               	bcf	3,6	;RP1=0, select bank0
   515  003C  00A2               	movwf	??_main+2
   516  003D  3004               	movlw	4
   517  003E  00A1               	movwf	??_main+1
   518  003F  30BA               	movlw	186
   519  0040  00A0               	movwf	??_main
   520  0041                     u947:	
   521  0041  0BA0               	decfsz	??_main,f
   522  0042  2841               	goto	u947
   523  0043  0BA1               	decfsz	??_main+1,f
   524  0044  2841               	goto	u947
   525  0045  0BA2               	decfsz	??_main+2,f
   526  0046  2841               	goto	u947
   527  0047                     l1117:	
   528                           
   529                           ;main.c: 61:             RA2 = 0;
   530  0047  1283               	bcf	3,5	;RP0=0, select bank0
   531  0048  1303               	bcf	3,6	;RP1=0, select bank0
   532  0049  1105               	bcf	5,2	;volatile
   533                           
   534                           ;main.c: 62:             _delay((unsigned long)((200)*(4000000/4000.0)));
   535  004A  3002               	movlw	2
   536  004B  1283               	bcf	3,5	;RP0=0, select bank0
   537  004C  1303               	bcf	3,6	;RP1=0, select bank0
   538  004D  00A2               	movwf	??_main+2
   539  004E  3004               	movlw	4
   540  004F  00A1               	movwf	??_main+1
   541  0050  30BA               	movlw	186
   542  0051  00A0               	movwf	??_main
   543  0052                     u957:	
   544  0052  0BA0               	decfsz	??_main,f
   545  0053  2852               	goto	u957
   546  0054  0BA1               	decfsz	??_main+1,f
   547  0055  2852               	goto	u957
   548  0056  0BA2               	decfsz	??_main+2,f
   549  0057  2852               	goto	u957
   550  0058                     l1119:	
   551                           
   552                           ;main.c: 63:             RA2 = 1;
   553  0058  1283               	bcf	3,5	;RP0=0, select bank0
   554  0059  1303               	bcf	3,6	;RP1=0, select bank0
   555  005A  1505               	bsf	5,2	;volatile
   556                           
   557                           ;main.c: 64:             _delay((unsigned long)((200)*(4000000/4000.0)));
   558  005B  3002               	movlw	2
   559  005C  1283               	bcf	3,5	;RP0=0, select bank0
   560  005D  1303               	bcf	3,6	;RP1=0, select bank0
   561  005E  00A2               	movwf	??_main+2
   562  005F  3004               	movlw	4
   563  0060  00A1               	movwf	??_main+1
   564  0061  30BA               	movlw	186
   565  0062  00A0               	movwf	??_main
   566  0063                     u967:	
   567  0063  0BA0               	decfsz	??_main,f
   568  0064  2863               	goto	u967
   569  0065  0BA1               	decfsz	??_main+1,f
   570  0066  2863               	goto	u967
   571  0067  0BA2               	decfsz	??_main+2,f
   572  0068  2863               	goto	u967
   573  0069                     l1121:	
   574                           
   575                           ;main.c: 65:             RA2 = 0;
   576  0069  1283               	bcf	3,5	;RP0=0, select bank0
   577  006A  1303               	bcf	3,6	;RP1=0, select bank0
   578  006B  1105               	bcf	5,2	;volatile
   579                           
   580                           ;main.c: 67:         } else if(RB5==0 && RB4==1) {
   581  006C  28C6               	goto	l1155
   582  006D                     l100:	
   583  006D  1A86               	btfsc	6,5	;volatile
   584  006E  2870               	goto	u801
   585  006F  2871               	goto	u800
   586  0070                     u801:	
   587  0070  288D               	goto	l102
   588  0071                     u800:	
   589  0071                     l1123:	
   590  0071  1E06               	btfss	6,4	;volatile
   591  0072  2874               	goto	u811
   592  0073  2875               	goto	u810
   593  0074                     u811:	
   594  0074  288D               	goto	l102
   595  0075                     u810:	
   596  0075                     l1125:	
   597                           
   598                           ;main.c: 69:             RA7 = 0;
   599  0075  1385               	bcf	5,7	;volatile
   600                           
   601                           ;main.c: 70:             RA3 = 0;
   602  0076  1185               	bcf	5,3	;volatile
   603  0077                     l1127:	
   604                           
   605                           ;main.c: 71:             if (counter>0) {
   606  0077  0824               	movf	_counter+1,w
   607  0078  3A80               	xorlw	128
   608  0079  00FF               	movwf	btemp+1
   609  007A  3080               	movlw	128
   610  007B  027F               	subwf	btemp+1,w
   611  007C  1D03               	skipz
   612  007D  2880               	goto	u825
   613  007E  3001               	movlw	1
   614  007F  0223               	subwf	_counter,w
   615  0080                     u825:	
   616  0080  1C03               	skipc
   617  0081  2883               	goto	u821
   618  0082  2884               	goto	u820
   619  0083                     u821:	
   620  0083  2888               	goto	l103
   621  0084                     u820:	
   622  0084                     l1129:	
   623                           
   624                           ;main.c: 72:                 RA2 = 1;
   625  0084  1283               	bcf	3,5	;RP0=0, select bank0
   626  0085  1303               	bcf	3,6	;RP1=0, select bank0
   627  0086  1505               	bsf	5,2	;volatile
   628                           
   629                           ;main.c: 73:             } else {
   630  0087  28C6               	goto	l1155
   631  0088                     l103:	
   632                           
   633                           ;main.c: 74:                 RA2 = 0;
   634  0088  1283               	bcf	3,5	;RP0=0, select bank0
   635  0089  1303               	bcf	3,6	;RP1=0, select bank0
   636  008A  1105               	bcf	5,2	;volatile
   637                           
   638                           ;main.c: 75:                 RA6 = 0;
   639  008B  1305               	bcf	5,6	;volatile
   640  008C  28C6               	goto	l1155
   641  008D                     l102:	
   642  008D  1E86               	btfss	6,5	;volatile
   643  008E  2890               	goto	u831
   644  008F  2891               	goto	u830
   645  0090                     u831:	
   646  0090  2899               	goto	l106
   647  0091                     u830:	
   648  0091                     l1131:	
   649  0091  1A06               	btfsc	6,4	;volatile
   650  0092  2894               	goto	u841
   651  0093  2895               	goto	u840
   652  0094                     u841:	
   653  0094  2899               	goto	l106
   654  0095                     u840:	
   655  0095                     l1133:	
   656                           
   657                           ;main.c: 79:             RA7=1;
   658  0095  1785               	bsf	5,7	;volatile
   659                           
   660                           ;main.c: 80:             RA3=0;
   661  0096  1185               	bcf	5,3	;volatile
   662                           
   663                           ;main.c: 81:             RA2=0;
   664  0097  1105               	bcf	5,2	;volatile
   665                           
   666                           ;main.c: 83:         } else if(RB5==1
   667  0098  28C6               	goto	l1155
   668  0099                     l106:	
   669  0099  1E86               	btfss	6,5	;volatile
   670  009A  289C               	goto	u851
   671  009B  289D               	goto	u850
   672  009C                     u851:	
   673  009C  28B3               	goto	l108
   674  009D                     u850:	
   675  009D                     l1135:	
   676  009D  1E06               	btfss	6,4	;volatile
   677  009E  28A0               	goto	u861
   678  009F  28A1               	goto	u860
   679  00A0                     u861:	
   680  00A0  28B3               	goto	l108
   681  00A1                     u860:	
   682  00A1                     l1137:	
   683  00A1  1B86               	btfsc	6,7	;volatile
   684  00A2  28A4               	goto	u871
   685  00A3  28A5               	goto	u870
   686  00A4                     u871:	
   687  00A4  28B3               	goto	l108
   688  00A5                     u870:	
   689  00A5                     l1139:	
   690                           
   691                           ;main.c: 85:                     && RB7==0) {;main.c: 87:             if (RA1==1) {
   692  00A5  1C85               	btfss	5,1	;volatile
   693  00A6  28A8               	goto	u881
   694  00A7  28A9               	goto	u880
   695  00A8                     u881:	
   696  00A8  28AB               	goto	l109
   697  00A9                     u880:	
   698  00A9                     l1141:	
   699                           
   700                           ;main.c: 88:                 RA7 = 1;
   701  00A9  1785               	bsf	5,7	;volatile
   702                           
   703                           ;main.c: 89:             } else {
   704  00AA  28AC               	goto	l1143
   705  00AB                     l109:	
   706                           
   707                           ;main.c: 90:                 RA7 = 0;
   708  00AB  1385               	bcf	5,7	;volatile
   709  00AC                     l1143:	
   710                           
   711                           ;main.c: 92:             RA3=!RA3;
   712  00AC  3008               	movlw	8
   713  00AD  0685               	xorwf	5,f
   714  00AE                     l1145:	
   715                           
   716                           ;main.c: 93:             if (RA0==1) {
   717  00AE  1C05               	btfss	5,0	;volatile
   718  00AF  28B1               	goto	u891
   719  00B0  28B2               	goto	u890
   720  00B1                     u891:	
   721  00B1  2869               	goto	l1121
   722  00B2                     u890:	
   723  00B2  2884               	goto	l1129
   724  00B3                     l108:	
   725  00B3  1E86               	btfss	6,5	;volatile
   726  00B4  28B6               	goto	u901
   727  00B5  28B7               	goto	u900
   728  00B6                     u901:	
   729  00B6  28C3               	goto	l114
   730  00B7                     u900:	
   731  00B7                     l1149:	
   732  00B7  1E06               	btfss	6,4	;volatile
   733  00B8  28BA               	goto	u911
   734  00B9  28BB               	goto	u910
   735  00BA                     u911:	
   736  00BA  28C3               	goto	l114
   737  00BB                     u910:	
   738  00BB                     l1151:	
   739  00BB  1F86               	btfss	6,7	;volatile
   740  00BC  28BE               	goto	u921
   741  00BD  28BF               	goto	u920
   742  00BE                     u921:	
   743  00BE  28C3               	goto	l114
   744  00BF                     u920:	
   745  00BF                     l1153:	
   746                           
   747                           ;main.c: 100:                     && RB7==1) {;main.c: 102:             RA7 = 0;
   748  00BF  1385               	bcf	5,7	;volatile
   749                           
   750                           ;main.c: 104:             RA3=1;
   751  00C0  1585               	bsf	5,3	;volatile
   752                           
   753                           ;main.c: 105:             RA2 = 0;
   754  00C1  1105               	bcf	5,2	;volatile
   755                           
   756                           ;main.c: 107:         } else {
   757  00C2  28C6               	goto	l1155
   758  00C3                     l114:	
   759                           
   760                           ;main.c: 108:             RA7 = 0;
   761  00C3  1385               	bcf	5,7	;volatile
   762                           
   763                           ;main.c: 109:             RA3= 0;
   764  00C4  1185               	bcf	5,3	;volatile
   765                           
   766                           ;main.c: 110:             RA2 = 0;
   767  00C5  1105               	bcf	5,2	;volatile
   768  00C6                     l1155:	
   769                           
   770                           ;main.c: 113:         counter--;
   771  00C6  30FF               	movlw	255
   772  00C7  07A3               	addwf	_counter,f
   773  00C8  1803               	skipnc
   774  00C9  0AA4               	incf	_counter+1,f
   775  00CA  30FF               	movlw	255
   776  00CB  07A4               	addwf	_counter+1,f
   777  00CC                     l1157:	
   778                           
   779                           ;main.c: 114:         if (counter<0) {
   780  00CC  1FA4               	btfss	_counter+1,7
   781  00CD  28CF               	goto	u931
   782  00CE  28D0               	goto	u930
   783  00CF                     u931:	
   784  00CF  28D2               	goto	l1161
   785  00D0                     u930:	
   786  00D0                     l1159:	
   787                           
   788                           ;main.c: 115:             counter = 0;
   789  00D0  01A3               	clrf	_counter
   790  00D1  01A4               	clrf	_counter+1
   791  00D2                     l1161:	
   792                           
   793                           ;main.c: 118:         _delay((unsigned long)((500)*(4000000/4000.0)));
   794  00D2  3003               	movlw	3
   795  00D3  1283               	bcf	3,5	;RP0=0, select bank0
   796  00D4  1303               	bcf	3,6	;RP1=0, select bank0
   797  00D5  00A2               	movwf	??_main+2
   798  00D6  308A               	movlw	138
   799  00D7  00A1               	movwf	??_main+1
   800  00D8  3055               	movlw	85
   801  00D9  00A0               	movwf	??_main
   802  00DA                     u977:	
   803  00DA  0BA0               	decfsz	??_main,f
   804  00DB  28DA               	goto	u977
   805  00DC  0BA1               	decfsz	??_main+1,f
   806  00DD  28DA               	goto	u977
   807  00DE  0BA2               	decfsz	??_main+2,f
   808  00DF  28DA               	goto	u977
   809  00E0  0000               	nop
   810  00E1  2820               	goto	l1105
   811  00E2  280A               	ljmp	start
   812  00E3                     __end_of_main:	
   813                           
   814                           	psect	text1
   815  0191                     __ptext1:	
   816 ;; *************** function _InitApp *****************
   817 ;; Defined at:
   818 ;;		line 25 in file "user.c"
   819 ;; Parameters:    Size  Location     Type
   820 ;;		None
   821 ;; Auto vars:     Size  Location     Type
   822 ;;		None
   823 ;; Return value:  Size  Location     Type
   824 ;;                  1    wreg      void 
   825 ;; Registers used:
   826 ;;		wreg, status,2
   827 ;; Tracked objects:
   828 ;;		On entry : 0/0
   829 ;;		On exit  : 0/0
   830 ;;		Unchanged: 0/0
   831 ;; Data sizes:     COMMON   BANK0   BANK1   BANK2
   832 ;;      Params:         0       0       0       0
   833 ;;      Locals:         0       0       0       0
   834 ;;      Temps:          3       0       0       0
   835 ;;      Totals:         3       0       0       0
   836 ;;Total ram usage:        3 bytes
   837 ;; Hardware stack levels used:    1
   838 ;; Hardware stack levels required when called:    1
   839 ;; This function calls:
   840 ;;		Nothing
   841 ;; This function is called by:
   842 ;;		_main
   843 ;; This function uses a non-reentrant model
   844 ;;
   845                           
   846                           
   847                           ;psect for function _InitApp
   848  0191                     _InitApp:	
   849  0191                     l909:	
   850                           ;incstack = 0
   851                           ; Regs used in _InitApp: [wreg+status,2]
   852                           
   853                           
   854                           ;user.c: 28:     INTCON = 0b00000000;
   855  0191  018B               	clrf	11	;volatile
   856  0192                     l911:	
   857                           
   858                           ;user.c: 31:     CMCON = 0b00000111;
   859  0192  3007               	movlw	7
   860  0193  1283               	bcf	3,5	;RP0=0, select bank0
   861  0194  1303               	bcf	3,6	;RP1=0, select bank0
   862  0195  009F               	movwf	31	;volatile
   863  0196                     l913:	
   864                           
   865                           ;user.c: 34:     TRISA = 0b00000000;
   866  0196  1683               	bsf	3,5	;RP0=1, select bank1
   867  0197  1303               	bcf	3,6	;RP1=0, select bank1
   868  0198  0185               	clrf	5	;volatile
   869  0199                     l915:	
   870                           
   871                           ;user.c: 35:     PORTA = 0b00000000;
   872  0199  1283               	bcf	3,5	;RP0=0, select bank0
   873  019A  1303               	bcf	3,6	;RP1=0, select bank0
   874  019B  0185               	clrf	5	;volatile
   875  019C                     l917:	
   876                           
   877                           ;user.c: 37:     TRISB = 0b11110001;
   878  019C  30F1               	movlw	241
   879  019D  1683               	bsf	3,5	;RP0=1, select bank1
   880  019E  1303               	bcf	3,6	;RP1=0, select bank1
   881  019F  0086               	movwf	6	;volatile
   882  01A0                     l919:	
   883                           
   884                           ;user.c: 38:     nRBPU = 0;
   885  01A0  1381               	bcf	1,7	;volatile
   886  01A1                     l921:	
   887                           
   888                           ;user.c: 41:     RA6 = 0;
   889  01A1  1283               	bcf	3,5	;RP0=0, select bank0
   890  01A2  1303               	bcf	3,6	;RP1=0, select bank0
   891  01A3  1305               	bcf	5,6	;volatile
   892  01A4                     l923:	
   893                           
   894                           ;user.c: 43:     RA0 = 0;
   895  01A4  1005               	bcf	5,0	;volatile
   896  01A5                     l925:	
   897                           
   898                           ;user.c: 44:     RA1 = 0;
   899  01A5  1085               	bcf	5,1	;volatile
   900  01A6                     l927:	
   901                           
   902                           ;user.c: 46:     RA2 = 1;
   903  01A6  1505               	bsf	5,2	;volatile
   904  01A7                     l929:	
   905                           
   906                           ;user.c: 47:     _delay((unsigned long)((500)*(4000000/4000.0)));
   907  01A7  3003               	movlw	3
   908  01A8  00F5               	movwf	??_InitApp+2
   909  01A9  308A               	movlw	138
   910  01AA  00F4               	movwf	??_InitApp+1
   911  01AB  3055               	movlw	85
   912  01AC  00F3               	movwf	??_InitApp
   913  01AD                     u987:	
   914  01AD  0BF3               	decfsz	??_InitApp,f
   915  01AE  29AD               	goto	u987
   916  01AF  0BF4               	decfsz	??_InitApp+1,f
   917  01B0  29AD               	goto	u987
   918  01B1  0BF5               	decfsz	??_InitApp+2,f
   919  01B2  29AD               	goto	u987
   920  01B3  29B4               	nop2
   921  01B4                     l931:	
   922                           
   923                           ;user.c: 48:     RA3 = 1;
   924  01B4  1283               	bcf	3,5	;RP0=0, select bank0
   925  01B5  1303               	bcf	3,6	;RP1=0, select bank0
   926  01B6  1585               	bsf	5,3	;volatile
   927  01B7                     l933:	
   928                           
   929                           ;user.c: 49:     _delay((unsigned long)((500)*(4000000/4000.0)));
   930  01B7  3003               	movlw	3
   931  01B8  00F5               	movwf	??_InitApp+2
   932  01B9  308A               	movlw	138
   933  01BA  00F4               	movwf	??_InitApp+1
   934  01BB  3055               	movlw	85
   935  01BC  00F3               	movwf	??_InitApp
   936  01BD                     u997:	
   937  01BD  0BF3               	decfsz	??_InitApp,f
   938  01BE  29BD               	goto	u997
   939  01BF  0BF4               	decfsz	??_InitApp+1,f
   940  01C0  29BD               	goto	u997
   941  01C1  0BF5               	decfsz	??_InitApp+2,f
   942  01C2  29BD               	goto	u997
   943  01C3  29C4               	nop2
   944  01C4                     l935:	
   945                           
   946                           ;user.c: 50:     RA2 = 0;
   947  01C4  1283               	bcf	3,5	;RP0=0, select bank0
   948  01C5  1303               	bcf	3,6	;RP1=0, select bank0
   949  01C6  1105               	bcf	5,2	;volatile
   950  01C7                     l937:	
   951                           
   952                           ;user.c: 51:     RA3 = 0;
   953  01C7  1185               	bcf	5,3	;volatile
   954  01C8                     l939:	
   955                           
   956                           ;user.c: 52:     RA7 = 1;
   957  01C8  1785               	bsf	5,7	;volatile
   958  01C9                     l941:	
   959                           
   960                           ;user.c: 53:     _delay((unsigned long)((500)*(4000000/4000.0)));
   961  01C9  3003               	movlw	3
   962  01CA  00F5               	movwf	??_InitApp+2
   963  01CB  308A               	movlw	138
   964  01CC  00F4               	movwf	??_InitApp+1
   965  01CD  3055               	movlw	85
   966  01CE  00F3               	movwf	??_InitApp
   967  01CF                     u1007:	
   968  01CF  0BF3               	decfsz	??_InitApp,f
   969  01D0  29CF               	goto	u1007
   970  01D1  0BF4               	decfsz	??_InitApp+1,f
   971  01D2  29CF               	goto	u1007
   972  01D3  0BF5               	decfsz	??_InitApp+2,f
   973  01D4  29CF               	goto	u1007
   974  01D5  29D6               	nop2
   975  01D6                     l943:	
   976                           
   977                           ;user.c: 54:     RA7 = 0;
   978  01D6  1283               	bcf	3,5	;RP0=0, select bank0
   979  01D7  1303               	bcf	3,6	;RP1=0, select bank0
   980  01D8  1385               	bcf	5,7	;volatile
   981  01D9                     l945:	
   982                           
   983                           ;user.c: 57:     if (RB5==0) {
   984  01D9  1A86               	btfsc	6,5	;volatile
   985  01DA  29DC               	goto	u341
   986  01DB  29DD               	goto	u340
   987  01DC                     u341:	
   988  01DC  29DF               	goto	l159
   989  01DD                     u340:	
   990  01DD                     l947:	
   991                           
   992                           ;user.c: 58:         movement_direction = 0;
   993  01DD  01F8               	clrf	_movement_direction
   994                           
   995                           ;user.c: 59:     } else if (RB4==0) {
   996  01DE  29E5               	goto	l953
   997  01DF                     l159:	
   998  01DF  1A06               	btfsc	6,4	;volatile
   999  01E0  29E2               	goto	u351
  1000  01E1  29E3               	goto	u350
  1001  01E2                     u351:	
  1002  01E2  29DD               	goto	l947
  1003  01E3                     u350:	
  1004  01E3                     l949:	
  1005                           
  1006                           ;user.c: 60:         movement_direction = 1;
  1007  01E3  01F8               	clrf	_movement_direction
  1008  01E4  0AF8               	incf	_movement_direction,f
  1009  01E5                     l953:	
  1010                           ;user.c: 61:     } else {
  1011                           
  1012                           
  1013                           ;user.c: 66:     RA0 = 0;
  1014  01E5  1005               	bcf	5,0	;volatile
  1015  01E6                     l955:	
  1016                           
  1017                           ;user.c: 67:     RA1 = 0;
  1018  01E6  1085               	bcf	5,1	;volatile
  1019  01E7                     l957:	
  1020                           
  1021                           ;user.c: 69:     _delay((unsigned long)((100)*(4000000/4000.0)));
  1022  01E7  3082               	movlw	130
  1023  01E8  00F4               	movwf	??_InitApp+1
  1024  01E9  30DD               	movlw	221
  1025  01EA  00F3               	movwf	??_InitApp
  1026  01EB                     u1017:	
  1027  01EB  0BF3               	decfsz	??_InitApp,f
  1028  01EC  29EB               	goto	u1017
  1029  01ED  0BF4               	decfsz	??_InitApp+1,f
  1030  01EE  29EB               	goto	u1017
  1031  01EF  29F0               	nop2
  1032  01F0                     l959:	
  1033                           
  1034                           ;user.c: 71:     RA6 = 1;
  1035  01F0  1283               	bcf	3,5	;RP0=0, select bank0
  1036  01F1  1303               	bcf	3,6	;RP1=0, select bank0
  1037  01F2  1705               	bsf	5,6	;volatile
  1038  01F3                     l961:	
  1039                           
  1040                           ;user.c: 74:     _delay((unsigned long)((100)*(4000000/4000.0)));
  1041  01F3  3082               	movlw	130
  1042  01F4  00F4               	movwf	??_InitApp+1
  1043  01F5  30DD               	movlw	221
  1044  01F6  00F3               	movwf	??_InitApp
  1045  01F7                     u1027:	
  1046  01F7  0BF3               	decfsz	??_InitApp,f
  1047  01F8  29F7               	goto	u1027
  1048  01F9  0BF4               	decfsz	??_InitApp+1,f
  1049  01FA  29F7               	goto	u1027
  1050  01FB  29FC               	nop2
  1051  01FC                     l963:	
  1052                           
  1053                           ;user.c: 76:     INTCON = 0b10011000;
  1054  01FC  3098               	movlw	152
  1055  01FD  008B               	movwf	11	;volatile
  1056  01FE                     l965:	
  1057                           
  1058                           ;user.c: 77:     INTEDG = 0;
  1059  01FE  1683               	bsf	3,5	;RP0=1, select bank1
  1060  01FF  1303               	bcf	3,6	;RP1=0, select bank1
  1061  0200  1301               	bcf	1,6	;volatile
  1062  0201                     l163:	
  1063  0201  0008               	return
  1064  0202                     __end_of_InitApp:	
  1065                           
  1066                           	psect	text2
  1067  0206                     __ptext2:	
  1068 ;; *************** function _ConfigureOscillator *****************
  1069 ;; Defined at:
  1070 ;;		line 18 in file "system.c"
  1071 ;; Parameters:    Size  Location     Type
  1072 ;;		None
  1073 ;; Auto vars:     Size  Location     Type
  1074 ;;		None
  1075 ;; Return value:  Size  Location     Type
  1076 ;;                  1    wreg      void 
  1077 ;; Registers used:
  1078 ;;		None
  1079 ;; Tracked objects:
  1080 ;;		On entry : 0/0
  1081 ;;		On exit  : 0/0
  1082 ;;		Unchanged: 0/0
  1083 ;; Data sizes:     COMMON   BANK0   BANK1   BANK2
  1084 ;;      Params:         0       0       0       0
  1085 ;;      Locals:         0       0       0       0
  1086 ;;      Temps:          0       0       0       0
  1087 ;;      Totals:         0       0       0       0
  1088 ;;Total ram usage:        0 bytes
  1089 ;; Hardware stack levels used:    1
  1090 ;; Hardware stack levels required when called:    1
  1091 ;; This function calls:
  1092 ;;		Nothing
  1093 ;; This function is called by:
  1094 ;;		_main
  1095 ;; This function uses a non-reentrant model
  1096 ;;
  1097                           
  1098                           
  1099                           ;psect for function _ConfigureOscillator
  1100  0206                     _ConfigureOscillator:	
  1101  0206                     l122:	
  1102                           ;incstack = 0
  1103                           ; Regs used in _ConfigureOscillator: []
  1104                           
  1105  0206  0008               	return
  1106  0207                     __end_of_ConfigureOscillator:	
  1107                           
  1108                           	psect	text3
  1109  00E3                     __ptext3:	
  1110 ;; *************** function _my_isr_routine *****************
  1111 ;; Defined at:
  1112 ;;		line 32 in file "interrupts.c"
  1113 ;; Parameters:    Size  Location     Type
  1114 ;;		None
  1115 ;; Auto vars:     Size  Location     Type
  1116 ;;		None
  1117 ;; Return value:  Size  Location     Type
  1118 ;;                  1    wreg      void 
  1119 ;; Registers used:
  1120 ;;		wreg, status,2, status,0
  1121 ;; Tracked objects:
  1122 ;;		On entry : 0/0
  1123 ;;		On exit  : 0/0
  1124 ;;		Unchanged: 0/0
  1125 ;; Data sizes:     COMMON   BANK0   BANK1   BANK2
  1126 ;;      Params:         0       0       0       0
  1127 ;;      Locals:         0       0       0       0
  1128 ;;      Temps:          3       0       0       0
  1129 ;;      Totals:         3       0       0       0
  1130 ;;Total ram usage:        3 bytes
  1131 ;; Hardware stack levels used:    1
  1132 ;; This function calls:
  1133 ;;		Nothing
  1134 ;; This function is called by:
  1135 ;;		Interrupt level 1
  1136 ;; This function uses a non-reentrant model
  1137 ;;
  1138                           
  1139                           
  1140                           ;psect for function _my_isr_routine
  1141  00E3                     _my_isr_routine:	
  1142  00E3                     i1l967:	
  1143                           
  1144                           ;interrupts.c: 39:     if(INTF){
  1145  00E3  1C8B               	btfss	11,1	;volatile
  1146  00E4  28E6               	goto	u36_21
  1147  00E5  28E7               	goto	u36_20
  1148  00E6                     u36_21:	
  1149  00E6  2930               	goto	i1l31
  1150  00E7                     u36_20:	
  1151  00E7                     i1l969:	
  1152                           
  1153                           ;interrupts.c: 41:         if (RB5==0 && RB4==0 ) {
  1154  00E7  1283               	bcf	3,5	;RP0=0, select bank0
  1155  00E8  1303               	bcf	3,6	;RP1=0, select bank0
  1156  00E9  1A86               	btfsc	6,5	;volatile
  1157  00EA  28EC               	goto	u37_21
  1158  00EB  28ED               	goto	u37_20
  1159  00EC                     u37_21:	
  1160  00EC  28F4               	goto	i1l32
  1161  00ED                     u37_20:	
  1162  00ED                     i1l971:	
  1163  00ED  1A06               	btfsc	6,4	;volatile
  1164  00EE  28F0               	goto	u38_21
  1165  00EF  28F1               	goto	u38_20
  1166  00F0                     u38_21:	
  1167  00F0  28F4               	goto	i1l32
  1168  00F1                     u38_20:	
  1169  00F1                     i1l973:	
  1170                           
  1171                           ;interrupts.c: 42:             RA0 = 0;
  1172  00F1  1005               	bcf	5,0	;volatile
  1173                           
  1174                           ;interrupts.c: 43:             RA1 = 0;
  1175  00F2  1085               	bcf	5,1	;volatile
  1176                           
  1177                           ;interrupts.c: 44:         } else if (RA0==1 || RA1==1 ) {
  1178  00F3  2924               	goto	i1l33
  1179  00F4                     i1l32:	
  1180  00F4  1805               	btfsc	5,0	;volatile
  1181  00F5  28F7               	goto	u39_21
  1182  00F6  28F8               	goto	u39_20
  1183  00F7                     u39_21:	
  1184  00F7  28FC               	goto	i1l36
  1185  00F8                     u39_20:	
  1186  00F8                     i1l975:	
  1187  00F8  1C85               	btfss	5,1	;volatile
  1188  00F9  28FB               	goto	u40_21
  1189  00FA  28FC               	goto	u40_20
  1190  00FB                     u40_21:	
  1191  00FB  2909               	goto	i1l979
  1192  00FC                     u40_20:	
  1193  00FC                     i1l36:	
  1194                           
  1195                           ;interrupts.c: 45:             RA0 = 0;
  1196  00FC  1005               	bcf	5,0	;volatile
  1197                           
  1198                           ;interrupts.c: 46:             RA1 = 0;
  1199  00FD  1085               	bcf	5,1	;volatile
  1200  00FE                     i1l977:	
  1201                           
  1202                           ;interrupts.c: 47:             movement_direction = (movement_direction==0)?1:0;
  1203  00FE  0878               	movf	_movement_direction,w
  1204  00FF  1903               	btfsc	3,2
  1205  0100  2902               	goto	u41_21
  1206  0101  2904               	goto	u41_20
  1207  0102                     u41_21:	
  1208  0102  3001               	movlw	1
  1209  0103  2905               	goto	u42_20
  1210  0104                     u41_20:	
  1211  0104  3000               	movlw	0
  1212  0105                     u42_20:	
  1213  0105  00F0               	movwf	??_my_isr_routine
  1214  0106  0870               	movf	??_my_isr_routine,w
  1215  0107  00F8               	movwf	_movement_direction
  1216                           
  1217                           ;interrupts.c: 48:         } else {
  1218  0108  2924               	goto	i1l33
  1219  0109                     i1l979:	
  1220                           
  1221                           ;interrupts.c: 49:             if(movement_direction==1) {
  1222  0109  0378               	decf	_movement_direction,w
  1223  010A  1D03               	btfss	3,2
  1224  010B  290D               	goto	u43_21
  1225  010C  290E               	goto	u43_20
  1226  010D                     u43_21:	
  1227  010D  2919               	goto	i1l38
  1228  010E                     u43_20:	
  1229  010E                     i1l981:	
  1230                           
  1231                           ;interrupts.c: 50:                 if (RB5==1) {
  1232  010E  1E86               	btfss	6,5	;volatile
  1233  010F  2911               	goto	u44_21
  1234  0110  2912               	goto	u44_20
  1235  0111                     u44_21:	
  1236  0111  2915               	goto	i1l39
  1237  0112                     u44_20:	
  1238  0112                     i1l983:	
  1239                           
  1240                           ;interrupts.c: 51:                     RA1 = 0;
  1241  0112  1085               	bcf	5,1	;volatile
  1242                           
  1243                           ;interrupts.c: 52:                     RA0 = 1;
  1244  0113  1405               	bsf	5,0	;volatile
  1245                           
  1246                           ;interrupts.c: 53:                 } else {
  1247  0114  2924               	goto	i1l33
  1248  0115                     i1l39:	
  1249                           
  1250                           ;interrupts.c: 54:                     RA1 = 1;
  1251  0115  1485               	bsf	5,1	;volatile
  1252                           
  1253                           ;interrupts.c: 55:                     RA0 = 0;
  1254  0116  1005               	bcf	5,0	;volatile
  1255  0117                     i1l985:	
  1256                           
  1257                           ;interrupts.c: 56:                     movement_direction = 0;
  1258  0117  01F8               	clrf	_movement_direction
  1259  0118  2924               	goto	i1l33
  1260  0119                     i1l38:	
  1261                           
  1262                           ;interrupts.c: 59:                 if (RB4==1) {
  1263  0119  1E06               	btfss	6,4	;volatile
  1264  011A  291C               	goto	u45_21
  1265  011B  291D               	goto	u45_20
  1266  011C                     u45_21:	
  1267  011C  2920               	goto	i1l42
  1268  011D                     u45_20:	
  1269  011D                     i1l987:	
  1270                           
  1271                           ;interrupts.c: 60:                     RA1 = 1;
  1272  011D  1485               	bsf	5,1	;volatile
  1273                           
  1274                           ;interrupts.c: 61:                     RA0 = 0;
  1275  011E  1005               	bcf	5,0	;volatile
  1276                           
  1277                           ;interrupts.c: 62:                 } else {
  1278  011F  2924               	goto	i1l33
  1279  0120                     i1l42:	
  1280                           
  1281                           ;interrupts.c: 63:                     RA1 = 0;
  1282  0120  1085               	bcf	5,1	;volatile
  1283                           
  1284                           ;interrupts.c: 64:                     RA0 = 1;
  1285  0121  1405               	bsf	5,0	;volatile
  1286                           
  1287                           ;interrupts.c: 65:                     movement_direction = 1;
  1288  0122  01F8               	clrf	_movement_direction
  1289  0123  0AF8               	incf	_movement_direction,f
  1290  0124                     i1l33:	
  1291                           
  1292                           ;interrupts.c: 70:         overtorgue_flag = 1;
  1293  0124  01F7               	clrf	_overtorgue_flag
  1294  0125  0AF7               	incf	_overtorgue_flag,f
  1295                           
  1296                           ;interrupts.c: 71:         must_be_closed = 1;
  1297  0126  01F6               	clrf	_must_be_closed
  1298  0127  0AF6               	incf	_must_be_closed,f
  1299                           
  1300                           ;interrupts.c: 72:         RA6 = 1;
  1301  0128  1705               	bsf	5,6	;volatile
  1302  0129                     i1l989:	
  1303                           
  1304                           ;interrupts.c: 73:         counter=20;
  1305  0129  3014               	movlw	20
  1306  012A  00A3               	movwf	_counter
  1307  012B  3000               	movlw	0
  1308  012C  00A4               	movwf	_counter+1
  1309                           
  1310                           ;interrupts.c: 75:         PORTB;
  1311  012D  0806               	movf	6,w	;volatile
  1312  012E                     i1l991:	
  1313                           
  1314                           ;interrupts.c: 76:         INTF=0;
  1315  012E  108B               	bcf	11,1	;volatile
  1316                           
  1317                           ;interrupts.c: 77:     } else if (RBIF){
  1318  012F  298A               	goto	i1l59
  1319  0130                     i1l31:	
  1320  0130  1C0B               	btfss	11,0	;volatile
  1321  0131  2933               	goto	u46_21
  1322  0132  2934               	goto	u46_20
  1323  0133                     u46_21:	
  1324  0133  298A               	goto	i1l59
  1325  0134                     u46_20:	
  1326  0134                     i1l993:	
  1327                           
  1328                           ;interrupts.c: 79:         if (RB6==0) {
  1329  0134  1283               	bcf	3,5	;RP0=0, select bank0
  1330  0135  1303               	bcf	3,6	;RP1=0, select bank0
  1331  0136  1B06               	btfsc	6,6	;volatile
  1332  0137  2939               	goto	u47_21
  1333  0138  293A               	goto	u47_20
  1334  0139                     u47_21:	
  1335  0139  2953               	goto	i1l46
  1336  013A                     u47_20:	
  1337  013A                     i1l995:	
  1338                           
  1339                           ;interrupts.c: 81:             must_be_closed = 1;
  1340  013A  01F6               	clrf	_must_be_closed
  1341  013B  0AF6               	incf	_must_be_closed,f
  1342  013C                     i1l997:	
  1343                           
  1344                           ;interrupts.c: 82:             if (movement_direction==1) {
  1345  013C  0378               	decf	_movement_direction,w
  1346  013D  1D03               	btfss	3,2
  1347  013E  2940               	goto	u48_21
  1348  013F  2941               	goto	u48_20
  1349  0140                     u48_21:	
  1350  0140  294D               	goto	i1l47
  1351  0141                     u48_20:	
  1352  0141                     i1l999:	
  1353                           
  1354                           ;interrupts.c: 83:                 if (RB4==0) {
  1355  0141  1A06               	btfsc	6,4	;volatile
  1356  0142  2944               	goto	u49_21
  1357  0143  2945               	goto	u49_20
  1358  0144                     u49_21:	
  1359  0144  2948               	goto	i1l48
  1360  0145                     u49_20:	
  1361  0145                     i1l1001:	
  1362                           
  1363                           ;interrupts.c: 84:                     RA0 = 0;
  1364  0145  1005               	bcf	5,0	;volatile
  1365                           
  1366                           ;interrupts.c: 85:                     RA1 = 0;
  1367  0146  1085               	bcf	5,1	;volatile
  1368                           
  1369                           ;interrupts.c: 86:                 } else {
  1370  0147  294B               	goto	i1l49
  1371  0148                     i1l48:	
  1372                           
  1373                           ;interrupts.c: 87:                     RA0 = 0;
  1374  0148  1005               	bcf	5,0	;volatile
  1375                           
  1376                           ;interrupts.c: 88:                     RA1 = 1;
  1377  0149  1485               	bsf	5,1	;volatile
  1378  014A                     i1l1003:	
  1379                           
  1380                           ;interrupts.c: 91:                     movement_direction = 0;
  1381  014A  01F8               	clrf	_movement_direction
  1382  014B                     i1l49:	
  1383                           ;interrupts.c: 92:                 };
  1384                           
  1385                           
  1386                           ;interrupts.c: 93:                 overtorgue_flag=0;
  1387  014B  01F7               	clrf	_overtorgue_flag
  1388                           
  1389                           ;interrupts.c: 94:             } else {
  1390  014C  2988               	goto	i1l1027
  1391  014D                     i1l47:	
  1392                           
  1393                           ;interrupts.c: 95:                 RA1 = 0;
  1394  014D  1085               	bcf	5,1	;volatile
  1395                           
  1396                           ;interrupts.c: 96:                 RA0 = 0;
  1397  014E  1005               	bcf	5,0	;volatile
  1398  014F                     i1l1005:	
  1399                           
  1400                           ;interrupts.c: 97:                 overtorgue_flag=0;
  1401  014F  01F7               	clrf	_overtorgue_flag
  1402                           
  1403                           ;interrupts.c: 98:                 movement_direction = 0;
  1404  0150  01F8               	clrf	_movement_direction
  1405  0151  2988               	goto	i1l1027
  1406  0152                     i1l50:	
  1407                           ;interrupts.c: 99:             };
  1408                           
  1409                           
  1410                           ;interrupts.c: 101:         } else if (RB5==0 && RB4==0) {
  1411  0152  2988               	goto	i1l1027
  1412  0153                     i1l46:	
  1413  0153  1A86               	btfsc	6,5	;volatile
  1414  0154  2956               	goto	u50_21
  1415  0155  2957               	goto	u50_20
  1416  0156                     u50_21:	
  1417  0156  295E               	goto	i1l52
  1418  0157                     u50_20:	
  1419  0157                     i1l1007:	
  1420  0157  1A06               	btfsc	6,4	;volatile
  1421  0158  295A               	goto	u51_21
  1422  0159  295B               	goto	u51_20
  1423  015A                     u51_21:	
  1424  015A  295E               	goto	i1l52
  1425  015B                     u51_20:	
  1426  015B                     i1l1009:	
  1427                           
  1428                           ;interrupts.c: 103:             RA0 = 0;
  1429  015B  1005               	bcf	5,0	;volatile
  1430                           
  1431                           ;interrupts.c: 104:             RA1 = 0;
  1432  015C  1085               	bcf	5,1	;volatile
  1433                           
  1434                           ;interrupts.c: 106:         } else if (RB5==0) {
  1435  015D  2988               	goto	i1l1027
  1436  015E                     i1l52:	
  1437  015E  1A86               	btfsc	6,5	;volatile
  1438  015F  2961               	goto	u52_21
  1439  0160  2962               	goto	u52_20
  1440  0161                     u52_21:	
  1441  0161  296A               	goto	i1l54
  1442  0162                     u52_20:	
  1443  0162                     i1l1011:	
  1444                           
  1445                           ;interrupts.c: 108:             RA0 = 0;
  1446  0162  1005               	bcf	5,0	;volatile
  1447  0163                     i1l1013:	
  1448                           
  1449                           ;interrupts.c: 109:             movement_direction = 0;
  1450  0163  01F8               	clrf	_movement_direction
  1451                           
  1452                           ;interrupts.c: 110:             must_be_closed = 0;
  1453  0164  01F6               	clrf	_must_be_closed
  1454  0165                     i1l1015:	
  1455                           
  1456                           ;interrupts.c: 111:             counter=20;
  1457  0165  3014               	movlw	20
  1458  0166  00A3               	movwf	_counter
  1459  0167  3000               	movlw	0
  1460  0168  00A4               	movwf	_counter+1
  1461                           
  1462                           ;interrupts.c: 113:         } else if (RB4==0) {
  1463  0169  2988               	goto	i1l1027
  1464  016A                     i1l54:	
  1465  016A  1A06               	btfsc	6,4	;volatile
  1466  016B  296D               	goto	u53_21
  1467  016C  296E               	goto	u53_20
  1468  016D                     u53_21:	
  1469  016D  2972               	goto	i1l56
  1470  016E                     u53_20:	
  1471  016E                     i1l1017:	
  1472                           
  1473                           ;interrupts.c: 115:             RA1 = 0;
  1474  016E  1085               	bcf	5,1	;volatile
  1475                           
  1476                           ;interrupts.c: 116:             movement_direction = 1;
  1477  016F  01F8               	clrf	_movement_direction
  1478  0170  0AF8               	incf	_movement_direction,f
  1479                           
  1480                           ;interrupts.c: 118:         } else if (RB5==1
  1481  0171  2988               	goto	i1l1027
  1482  0172                     i1l56:	
  1483  0172  1E86               	btfss	6,5	;volatile
  1484  0173  2975               	goto	u54_21
  1485  0174  2976               	goto	u54_20
  1486  0175                     u54_21:	
  1487  0175  2952               	goto	i1l50
  1488  0176                     u54_20:	
  1489  0176                     i1l1019:	
  1490  0176  0878               	movf	_movement_direction,w
  1491  0177  1D03               	btfss	3,2
  1492  0178  297A               	goto	u55_21
  1493  0179  297B               	goto	u55_20
  1494  017A                     u55_21:	
  1495  017A  2952               	goto	i1l50
  1496  017B                     u55_20:	
  1497  017B                     i1l1021:	
  1498  017B  0876               	movf	_must_be_closed,w
  1499  017C  1D03               	btfss	3,2
  1500  017D  297F               	goto	u56_21
  1501  017E  2980               	goto	u56_20
  1502  017F                     u56_21:	
  1503  017F  2952               	goto	i1l50
  1504  0180                     u56_20:	
  1505  0180                     i1l1023:	
  1506  0180  1885               	btfsc	5,1	;volatile
  1507  0181  2983               	goto	u57_21
  1508  0182  2984               	goto	u57_20
  1509  0183                     u57_21:	
  1510  0183  2952               	goto	i1l50
  1511  0184                     u57_20:	
  1512  0184                     i1l1025:	
  1513                           
  1514                           ;interrupts.c: 121:                         && RA1==0) {;interrupts.c: 123:             
      +                          RA6 = 1;
  1515  0184  1705               	bsf	5,6	;volatile
  1516                           
  1517                           ;interrupts.c: 124:             RA0 = 1;
  1518  0185  1405               	bsf	5,0	;volatile
  1519                           
  1520                           ;interrupts.c: 125:             movement_direction = 1;
  1521  0186  01F8               	clrf	_movement_direction
  1522  0187  0AF8               	incf	_movement_direction,f
  1523  0188                     i1l1027:	
  1524                           
  1525                           ;interrupts.c: 127:         PORTB;
  1526  0188  0806               	movf	6,w	;volatile
  1527  0189                     i1l1029:	
  1528                           
  1529                           ;interrupts.c: 128:         RBIF=0;
  1530  0189  100B               	bcf	11,0	;volatile
  1531  018A                     i1l59:	
  1532  018A  0872               	movf	??_my_isr_routine+2,w
  1533  018B  008A               	movwf	10
  1534  018C  0E71               	swapf	(??_my_isr_routine+1)^(0+4294967168),w
  1535  018D  0083               	movwf	3
  1536  018E  0EFE               	swapf	btemp,f
  1537  018F  0E7E               	swapf	btemp,w
  1538  0190  0009               	retfie
  1539  0191                     __end_of_my_isr_routine:	
  1540  007E                     btemp	set	126	;btemp
  1541  007E                     wtemp0	set	126
  1542                           
  1543                           	psect	intentry
  1544  0004                     __pintentry:	
  1545                           ;incstack = 0
  1546                           ; Regs used in _my_isr_routine: [wreg+status,2+status,0]
  1547                           
  1548  0004                     interrupt_function:	
  1549  007E                     saved_w	set	btemp
  1550  0004  00FE               	movwf	btemp
  1551  0005  0E03               	swapf	3,w
  1552  0006  00F1               	movwf	??_my_isr_routine+1
  1553  0007  080A               	movf	10,w
  1554  0008  00F2               	movwf	??_my_isr_routine+2
  1555  0009  28E3               	ljmp	_my_isr_routine


Data Sizes:
    Strings     0
    Constant    0
    Data        4
    BSS         1
    Persistent  0
    Stack       0

Auto Spaces:
    Space          Size  Autos    Used
    COMMON           14      6       9
    BANK0            80      3       5
    BANK1            80      0       0
    BANK2            48      0       0

Pointer List with Targets:

    None.

Critical Paths under _main in COMMON

    _main->_InitApp

Critical Paths under _my_isr_routine in COMMON

    None.

Critical Paths under _main in BANK0

    None.

Critical Paths under _my_isr_routine in BANK0

    None.

Critical Paths under _main in BANK1

    None.

Critical Paths under _my_isr_routine in BANK1

    None.

Critical Paths under _main in BANK2

    None.

Critical Paths under _my_isr_routine in BANK2

    None.

Call Graph Tables:

 ---------------------------------------------------------------------------------
 (Depth) Function   	        Calls       Base Space   Used Autos Params    Refs
 ---------------------------------------------------------------------------------
 (0) _main                                                 3     3      0       0
                                              0 BANK0      3     3      0
                _ConfigureOscillator
                            _InitApp
 ---------------------------------------------------------------------------------
 (1) _InitApp                                              3     3      0       0
                                              3 COMMON     3     3      0
 ---------------------------------------------------------------------------------
 (1) _ConfigureOscillator                                  0     0      0       0
 ---------------------------------------------------------------------------------
 Estimated maximum stack depth 1
 ---------------------------------------------------------------------------------
 (Depth) Function   	        Calls       Base Space   Used Autos Params    Refs
 ---------------------------------------------------------------------------------
 (2) _my_isr_routine                                       3     3      0       0
                                              0 COMMON     3     3      0
 ---------------------------------------------------------------------------------
 Estimated maximum stack depth 2
 ---------------------------------------------------------------------------------

 Call Graph Graphs:

 _main (ROOT)
   _ConfigureOscillator
   _InitApp

 _my_isr_routine (ROOT)

 Address spaces:
Name               Size   Autos  Total    Cost      Usage
SFR3                 0      0       0       4        0.0%
BITSFR3              0      0       0       4        0.0%
BANK2               30      0       0       9        0.0%
BITBANK2            30      0       0       8        0.0%
SFR2                 0      0       0       5        0.0%
BITSFR2              0      0       0       5        0.0%
BANK1               50      0       0       7        0.0%
BITBANK1            50      0       0       6        0.0%
SFR1                 0      0       0       2        0.0%
BITSFR1              0      0       0       2        0.0%
BANK0               50      3       5       3        6.2%
BITBANK0            50      0       0       5        0.0%
SFR0                 0      0       0       1        0.0%
BITSFR0              0      0       0       1        0.0%
COMMON               E      6       9       1       64.3%
BITCOMMON            E      0       0       0        0.0%
CODE                 0      0       0       0        0.0%
DATA                 0      0       E      10        0.0%
ABS                  0      0       E       4        0.0%
NULL                 0      0       0       0        0.0%
STACK                0      0       0       2        0.0%
EEDATA              80      0       0       0        0.0%


Microchip Technology PIC Macro Assembler V2.10 build 88905656 
Symbol Table                                                                                   Fri May  8 07:05:53 2020

                 __CFG_CP$OFF 0000                            l98 002C                           l100 006D  
                         l102 008D                           l103 0088                           l122 0206  
                         l114 00C3                           l106 0099                           l108 00B3  
                         l109 00AB                           l163 0201                           l159 01DF  
                         l911 0192                           l921 01A1                           l913 0196  
                         l931 01B4                           l923 01A4                           l915 0199  
                         l941 01C9                           l933 01B7                           l925 01A5  
                         l917 019C                           l909 0191                           l943 01D6  
                         l935 01C4                           l927 01A6                           l919 01A0  
                         l961 01F3                           l953 01E5                           l945 01D9  
                         l937 01C7                           l929 01A7                           l963 01FC  
                         l955 01E6                           l947 01DD                           l939 01C8  
                         l965 01FE                           l957 01E7                           l949 01E3  
                         l959 01F0                           _RA0 0028                           _RA1 0029  
                         _RA2 002A                           _RA3 002B                           _RB4 0034  
                         _RA6 002E                           _RB5 0035                           _RA7 002F  
                         _RB6 0036                           _RB7 0037                           u340 01DD  
                         u341 01DC                           u350 01E3                           u351 01E2  
                __CFG_CPD$OFF 0000                           u800 0071                           u801 0070  
                         u810 0075                           u811 0074                           u900 00B7  
                         u820 0084                           u901 00B6                           u821 0083  
                         u910 00BB                           u830 0091                           u911 00BA  
                         u831 0090                           u920 00BF                           u840 0095  
                         u760 001E                           u921 00BE                           u841 0094  
                         u825 0080                           u761 001D                           u930 00D0  
                         u850 009D                           u770 0025                           u931 00CF  
                         u851 009C                           u771 0024                           u860 00A1  
                         u780 0032                           u861 00A0                           u781 0031  
                         u870 00A5                           u790 0036                           u871 00A4  
                         u791 0035                           u880 00A9                           u881 00A8  
                         u890 00B2                           u891 00B1                           u947 0041  
                         u957 0052                           u967 0063                           u977 00DA  
                         u987 01AD                           u997 01BD               _overtorgue_flag 0077  
                __CFG_LVP$OFF 0000                          l1101 0018                          l1111 0032  
                        l1103 001E                          l1121 0069                          l1113 0036  
                        l1105 0020                          l1131 0091                          l1123 0071  
                        l1115 0039                          l1107 0025                          l1141 00A9  
                        l1133 0095                          l1125 0075                          l1117 0047  
                        l1109 0029                          l1151 00BB                          l1143 00AC  
                        l1135 009D                          l1127 0077                          l1119 0058  
                        l1161 00D2                          l1153 00BF                          l1145 00AE  
                        l1137 00A1                          l1129 0084                          l1139 00A5  
                        l1155 00C6                          l1157 00CC                          l1149 00B7  
                        l1159 00D0                          l1097 0016                          l1099 0017  
                        u1007 01CF                          u1017 01EB                          u1027 01F7  
                        _INTF 0059                          i1l31 0130                          i1l32 00F4  
                        _RBIF 0058                          i1l33 0124                          i1l50 0152  
                        i1l42 0120                          i1l52 015E                          i1l36 00FC  
                        i1l54 016A                          i1l46 0153                          i1l38 0119  
                        i1l47 014D                          i1l39 0115                          i1l56 0172  
                        i1l48 0148                          i1l49 014B                          i1l59 018A  
                        _main 0016                          btemp 007E                          start 000A  
             __end_of_InitApp 0202                         ?_main 0070                 __CFG_WDTE$OFF 0000  
                       _CMCON 001F                         i1l971 00ED                         i1l981 010E  
                       i1l973 00F1                         i1l991 012E                         i1l983 0112  
                       i1l975 00F8                         i1l967 00E3                         i1l993 0134  
                       i1l985 0117                         i1l977 00FE                         i1l969 00E7  
                       i1l995 013A                         i1l987 011D                         i1l979 0109  
                       i1l997 013C                         i1l989 0129                         i1l999 0141  
                       u40_20 00FC                         u40_21 00FB                         u41_20 0104  
                       u41_21 0102                         u50_20 0157                         u42_20 0105  
                       u50_21 0156                         u51_20 015B                         u43_20 010E  
                       u51_21 015A                         u43_21 010D                         _PORTA 0005  
                       _PORTB 0006                         u52_20 0162                         u44_20 0112  
                       u36_20 00E7                         u52_21 0161                         u44_21 0111  
                       u36_21 00E6                         u53_20 016E                         u45_20 011D  
                       u37_20 00ED                         u53_21 016D                         u45_21 011C  
                       u37_21 00EC                         u54_20 0176                         u46_20 0134  
                       u38_20 00F1                         u54_21 0175                         u46_21 0133  
                       u38_21 00F0                         u55_20 017B                         u47_20 013A  
                       u39_20 00F8                         u55_21 017A                         u47_21 0139  
                       u39_21 00F7                         u56_20 0180                         u48_20 0141  
                       u56_21 017F                         u48_21 0140                         u57_20 0184  
                       u49_20 0145                         u57_21 0183                         u49_21 0144  
                       _TRISA 0085                         _TRISB 0086           _ConfigureOscillator 0206  
                       _nRBPU 040F                __CFG_BOREN$OFF 0000                         pclath 000A  
                       status 0003                         wtemp0 007E          ?_ConfigureOscillator 0070  
              __CFG_MCLRE$OFF 0000               __initialization 000B                  __end_of_main 00E3  
                      ??_main 0020                        i1l1001 0145                        i1l1011 0162  
                      i1l1003 014A                        i1l1021 017B                        i1l1013 0163  
                      i1l1005 014F                        i1l1023 0180                        i1l1015 0165  
                      i1l1007 0157                        i1l1025 0184                        i1l1017 016E  
                      i1l1009 015B                        i1l1019 0176                        i1l1027 0188  
                      i1l1029 0189                        _INTEDG 040E                        _INTCON 000B  
                   ??_InitApp 0073         ??_ConfigureOscillator 0073                __CFG_PWRTE$OFF 0000  
                __pdataCOMMON 0076                        saved_w 007E       __end_of__initialization 0014  
              __pcstackCOMMON 0070                  __pidataBANK0 0204                    __pmaintext 0016  
                  __pintentry 0004            _movement_direction 0078       __size_of_my_isr_routine 00AE  
                     _InitApp 0191                       __ptext1 0191                       __ptext2 0206  
                     __ptext3 00E3                       _counter 0023          end_of_initialization 0014  
 __end_of_ConfigureOscillator 0207                 __pidataCOMMON 0202           start_initialization 000B  
              _my_isr_routine 00E3                   __pdataBANK0 0023                   __pbssCOMMON 0078  
                   ___latbits 0000                 __pcstackBANK0 0020        __end_of_my_isr_routine 0191  
                    ?_InitApp 0070               ?_my_isr_routine 0070             interrupt_function 0004  
            __size_of_InitApp 0071                 __size_of_main 00CD  __size_of_ConfigureOscillator 0001  
                    intlevel1 0000                _must_be_closed 0076              ??_my_isr_routine 0070  
          __CFG_FOSC$INTOSCIO 0000  
